target datalayout = "e-m:e-p270:32:32-p271:32:32-p272:64:64-i64:64-i128:128-f80:128-n8:16:32:64-S128"
target triple = "x86_64-pc-linux-gnu"

%struct.Aes = type { [60 x i32], i32, i32, [8 x i8], [4 x i32], [4 x i32], [2 x i32], i32, [4 x i8], %struct.Gcm, ptr, [8 x i8] }
%struct.Gcm = type { [16 x i8], [32 x [16 x i8]] }
%struct.Gmac = type { %struct.Aes }
%struct.timespec = type { i64, i64 }

@err_prefix = internal constant [1 x i8] zeroinitializer, align 1
@bench_size = internal global i32 1048576, align 4
@devId = internal thread_local global i32 -2, align 4
@bench_plain = internal thread_local global ptr null, align 8
@bench_key = internal thread_local global ptr null, align 8
@bench_iv = internal thread_local global ptr null, align 8
@.str.31 = private unnamed_addr constant [17 x i8] c"GMAC Table 4-bit\00", align 1
@.str.78 = private unnamed_addr constant [28 x i8] c"%s%s L%d error %d for \22%s\22\0A\00", align 1
@.str.79 = private unnamed_addr constant [125 x i8] c"generated/home/dtcxzyw/WorkSpace/Projects/compilers/llvm-opt-benchmark/bench/wolfssl/wolfssl/wolfcrypt/benchmark/benchmark.c\00", align 1
@.str.80 = private unnamed_addr constant [35 x i8] c"clock_gettime(CLOCK_REALTIME, &tv)\00", align 1
@stdout = external global ptr, align 8
@total_cycles = internal thread_local global i64 0, align 8

; Function Attrs: inlinehint nounwind uwtable
define internal i64 @get_intel_cycles() #3 {
  %1 = alloca i32, align 4
  %2 = alloca i32, align 4
  call void @llvm.lifetime.start.p0(i64 4, ptr %1) #12
  call void @llvm.lifetime.start.p0(i64 4, ptr %2) #12
  %3 = call { i32, i32 } asm sideeffect "cpuid\0A\09rdtsc", "={ax},={dx},{ax},~{ebx},~{ecx},~{dirflag},~{fpsr},~{flags}"(i32 0) #12, !srcloc !261
  %4 = extractvalue { i32, i32 } %3, 0
  %5 = extractvalue { i32, i32 } %3, 1
  store i32 %4, ptr %1, align 4, !tbaa !4
  store i32 %5, ptr %2, align 4, !tbaa !4
  %6 = load i32, ptr %1, align 4, !tbaa !4
  %7 = zext i32 %6 to i64
  %8 = load i32, ptr %2, align 4, !tbaa !4
  %9 = zext i32 %8 to i64
  %10 = shl i64 %9, 32
  %11 = or i64 %7, %10
  call void @llvm.lifetime.end.p0(i64 4, ptr %2) #12
  call void @llvm.lifetime.end.p0(i64 4, ptr %1) #12
  ret i64 %11
}

; Function Attrs: nounwind uwtable
define dso_local double @current_time(i32 noundef %0) #0 {
  %2 = alloca i32, align 4
  %3 = alloca %struct.timespec, align 8
  %4 = alloca i32, align 4
  store i32 %0, ptr %2, align 4, !tbaa !4
  call void @llvm.lifetime.start.p0(i64 16, ptr %3) #12
  br label %5

5:                                                ; preds = %1
  call void @llvm.lifetime.start.p0(i64 4, ptr %4) #12
  %6 = call i32 @clock_gettime(i32 noundef 0, ptr noundef %3) #12
  store i32 %6, ptr %4, align 4, !tbaa !4
  %7 = load i32, ptr %4, align 4, !tbaa !4
  %8 = icmp slt i32 %7, 0
  br i1 %8, label %9, label %15

9:                                                ; preds = %5
  %10 = call ptr @__errno_location() #14
  %11 = load i32, ptr %10, align 4, !tbaa !4
  %12 = call i32 (ptr, ...) @printf(ptr noundef @.str.78, ptr noundef @err_prefix, ptr noundef @.str.79, i32 noundef 14994, i32 noundef %11, ptr noundef @.str.80)
  %13 = load ptr, ptr @stdout, align 8, !tbaa !14
  %14 = call i32 @fflush(ptr noundef %13)
  call void @_exit(i32 noundef 1) #15
  unreachable

15:                                               ; preds = %5
  call void @llvm.lifetime.end.p0(i64 4, ptr %4) #12
  br label %16

16:                                               ; preds = %15
  br label %17

17:                                               ; preds = %16
  %18 = getelementptr inbounds nuw %struct.timespec, ptr %3, i32 0, i32 0
  %19 = load i64, ptr %18, align 8, !tbaa !241
  %20 = sitofp i64 %19 to double
  %21 = getelementptr inbounds nuw %struct.timespec, ptr %3, i32 0, i32 1
  %22 = load i64, ptr %21, align 8, !tbaa !243
  %23 = sitofp i64 %22 to double
  %24 = fdiv double %23, 1.000000e+09
  %25 = fadd double %20, %24
  call void @llvm.lifetime.end.p0(i64 16, ptr %3) #12
  ret double %25
}

; Function Attrs: inlinehint nounwind uwtable
define internal i32 @bench_stats_check(double noundef %0) #3 {
  %2 = alloca double, align 8
  %3 = alloca i32, align 4
  %4 = alloca double, align 8
  store double %0, ptr %2, align 8, !tbaa !20
  call void @llvm.lifetime.start.p0(i64 4, ptr %3) #12
  store i32 0, ptr %3, align 4, !tbaa !4
  call void @llvm.lifetime.start.p0(i64 8, ptr %4) #12
  store double 0.000000e+00, ptr %4, align 8, !tbaa !20
  %5 = call double @current_time(i32 noundef 0)
  store double %5, ptr %4, align 8, !tbaa !20
  %6 = load double, ptr %4, align 8, !tbaa !20
  %7 = load double, ptr %2, align 8, !tbaa !20
  %8 = fsub double %6, %7
  %9 = fcmp olt double %8, 1.000000e+00
  %10 = zext i1 %9 to i32
  store i32 %10, ptr %3, align 4, !tbaa !4
  %11 = load i32, ptr %3, align 4, !tbaa !4
  call void @llvm.lifetime.end.p0(i64 8, ptr %4) #12
  call void @llvm.lifetime.end.p0(i64 4, ptr %3) #12
  ret i32 %11
}

; Function Attrs: inlinehint nounwind uwtable
define internal void @bench_stats_start(ptr noundef %0, ptr noundef %1) #3 {
  %3 = alloca ptr, align 8
  %4 = alloca ptr, align 8
  store ptr %0, ptr %3, align 8, !tbaa !23
  store ptr %1, ptr %4, align 8, !tbaa !25
  %5 = load ptr, ptr %3, align 8, !tbaa !23
  store i32 0, ptr %5, align 4, !tbaa !4
  %6 = call double @current_time(i32 noundef 1)
  %7 = load ptr, ptr %4, align 8, !tbaa !25
  store double %6, ptr %7, align 8, !tbaa !20
  %8 = call i64 @get_intel_cycles()
  %9 = call align 8 ptr @llvm.threadlocal.address.p0(ptr align 8 @total_cycles)
  store i64 %8, ptr %9, align 8, !tbaa !10
  ret void
}

; Function Attrs: nounwind uwtable
define dso_local void @bench_gmac(i32 noundef %0) #0 {
  %2 = alloca i32, align 4
  %3 = alloca i32, align 4
  %4 = alloca i32, align 4
  %5 = alloca %struct.Gmac, align 16
  %6 = alloca double, align 8
  %7 = alloca [16 x i8], align 16
  %8 = alloca ptr, align 8
  store i32 %0, ptr %2, align 4, !tbaa !4
  call void @llvm.lifetime.start.p0(i64 4, ptr %3) #12
  call void @llvm.lifetime.start.p0(i64 4, ptr %4) #12
  store i32 0, ptr %4, align 4, !tbaa !4
  call void @llvm.lifetime.start.p0(i64 848, ptr %5) #12
  call void @llvm.lifetime.start.p0(i64 8, ptr %6) #12
  call void @llvm.lifetime.start.p0(i64 16, ptr %7) #12
  call void @llvm.lifetime.start.p0(i64 8, ptr %8) #12
  store ptr @.str.31, ptr %8, align 8, !tbaa !12
  %9 = call align 8 ptr @llvm.threadlocal.address.p0(ptr align 8 @bench_plain)
  %10 = load ptr, ptr %9, align 8, !tbaa !12
  %11 = load i32, ptr @bench_size, align 4, !tbaa !4
  %12 = zext i32 %11 to i64
  call void @llvm.memset.p0.i64(ptr align 1 %10, i8 0, i64 %12, i1 false)
  %13 = getelementptr inbounds [16 x i8], ptr %7, i64 0, i64 0
  call void @llvm.memset.p0.i64(ptr align 16 %13, i8 0, i64 16, i1 false)
  call void @llvm.memset.p0.i64(ptr align 16 %5, i8 0, i64 848, i1 false)
  %14 = load i32, ptr %2, align 4, !tbaa !4
  %15 = icmp ne i32 %14, 0
  br i1 %15, label %16, label %19

16:                                               ; preds = %1
  %17 = call align 4 ptr @llvm.threadlocal.address.p0(ptr align 4 @devId)
  %18 = load i32, ptr %17, align 4, !tbaa !4
  br label %20

19:                                               ; preds = %1
  br label %20

20:                                               ; preds = %19, %16
  %21 = phi i32 [ %18, %16 ], [ -2, %19 ]
  %22 = call i32 @wc_AesInit(ptr noundef %5, ptr noundef null, i32 noundef %21)
  %23 = call align 8 ptr @llvm.threadlocal.address.p0(ptr align 8 @bench_key)
  %24 = load ptr, ptr %23, align 8, !tbaa !12
  %25 = call i32 @wc_GmacSetKey(ptr noundef %5, ptr noundef %24, i32 noundef 16)
  call void @bench_stats_start(ptr noundef %4, ptr noundef %6)
  br label %26

26:                                               ; preds = %39, %20
  %27 = call align 8 ptr @llvm.threadlocal.address.p0(ptr align 8 @bench_iv)
  %28 = load ptr, ptr %27, align 8, !tbaa !12
  %29 = call align 8 ptr @llvm.threadlocal.address.p0(ptr align 8 @bench_plain)
  %30 = load ptr, ptr %29, align 8, !tbaa !12
  %31 = load i32, ptr @bench_size, align 4, !tbaa !4
  %32 = getelementptr inbounds [16 x i8], ptr %7, i64 0, i64 0
  %33 = call i32 @wc_GmacUpdate(ptr noundef %5, ptr noundef %28, i32 noundef 12, ptr noundef %30, i32 noundef %31, ptr noundef %32, i32 noundef 16)
  store i32 %33, ptr %3, align 4, !tbaa !4
  %34 = load i32, ptr %4, align 4, !tbaa !4
  %35 = add nsw i32 %34, 1
  store i32 %35, ptr %4, align 4, !tbaa !4
  br label %36

36:                                               ; preds = %26
  br label %37

37:                                               ; preds = %36
  br label %38

38:                                               ; preds = %37
  br label %39

39:                                               ; preds = %38
  %40 = load double, ptr %6, align 8, !tbaa !20
  %41 = call i32 @bench_stats_check(double noundef %40)
  %42 = icmp ne i32 %41, 0
  br i1 %42, label %26, label %43, !llvm.loop !48

43:                                               ; preds = %39
  call void @wc_AesFree(ptr noundef %5)
  %44 = load ptr, ptr %8, align 8, !tbaa !12
  %45 = load i32, ptr %4, align 4, !tbaa !4
  %46 = load i32, ptr @bench_size, align 4, !tbaa !4
  %47 = load double, ptr %6, align 8, !tbaa !20
  %48 = load i32, ptr %3, align 4, !tbaa !4
  call void @bench_stats_sym_finish(ptr noundef %44, i32 noundef 0, i32 noundef %45, i32 noundef %46, double noundef %47, i32 noundef %48)
  call void @llvm.lifetime.end.p0(i64 8, ptr %8) #12
  call void @llvm.lifetime.end.p0(i64 16, ptr %7) #12
  call void @llvm.lifetime.end.p0(i64 8, ptr %6) #12
  call void @llvm.lifetime.end.p0(i64 848, ptr %5) #12
  call void @llvm.lifetime.end.p0(i64 4, ptr %4) #12
  call void @llvm.lifetime.end.p0(i64 4, ptr %3) #12
  ret void
}