; Function Attrs: nounwind uwtable
define dso_local void @bench_gmac(i32 %0) local_unnamed_addr #0 {
  %2 = alloca %struct.timespec, align 8
  %3 = alloca %struct.timespec, align 8
  %4 = alloca %struct.Gmac, align 16
  %5 = alloca [16 x i8], align 16
  call void @llvm.lifetime.start.p0(i64 848, ptr nonnull %4) #16
  call void @llvm.lifetime.start.p0(i64 16, ptr nonnull %5) #16
  %6 = tail call align 8 ptr @llvm.threadlocal.address.p0(ptr align 8 @bench_plain)
  %7 = load ptr, ptr %6, align 8, !tbaa !8
  %8 = load i32, ptr @bench_size, align 4, !tbaa !4
  %9 = zext i32 %8 to i64
  tail call void @llvm.memset.p0.i64(ptr align 1 %7, i8 0, i64 %9, i1 false)
  call void @llvm.memset.p0.i64(ptr noundef nonnull align 16 dereferenceable(16) %5, i8 0, i64 16, i1 false)
  call void @llvm.memset.p0.i64(ptr noundef nonnull align 16 dereferenceable(848) %4, i8 0, i64 848, i1 false)
  %10 = call i32 @wc_AesInit(ptr noundef nonnull %4, ptr noundef null, i32 noundef -2) #16
  %11 = call align 8 ptr @llvm.threadlocal.address.p0(ptr align 8 @bench_key)
  %12 = load ptr, ptr %11, align 8, !tbaa !8
  %13 = call i32 @wc_GmacSetKey(ptr noundef nonnull %4, ptr noundef %12, i32 noundef 16) #16
  call void @llvm.lifetime.start.p0(i64 16, ptr nonnull %3) #16
  %14 = call i32 @clock_gettime(i32 noundef 0, ptr noundef nonnull %3) #16
  %15 = icmp slt i32 %14, 0
  br i1 %15, label %16, label %bench_stats_start.exit

16:                                               ; preds = %1
  %17 = tail call ptr @__errno_location() #17
  %18 = load i32, ptr %17, align 4, !tbaa !4
  %19 = call i32 (ptr, ...) @printf(ptr noundef nonnull dereferenceable(1) @.str.78, ptr noundef nonnull @.str.113, ptr noundef nonnull @.str.79, i32 noundef 14994, i32 noundef %18, ptr noundef nonnull @.str.80)
  %20 = load ptr, ptr @stdout, align 8, !tbaa !14
  %21 = call i32 @fflush(ptr noundef %20)
  call void @_exit(i32 noundef 1) #18
  unreachable

bench_stats_start.exit:                           ; preds = %1
  %22 = load i64, ptr %3, align 8, !tbaa !16
  %23 = sitofp i64 %22 to double
  %24 = getelementptr inbounds nuw i8, ptr %3, i64 8
  %25 = load i64, ptr %24, align 8, !tbaa !19
  %26 = sitofp i64 %25 to double
  %27 = fdiv double %26, 1.000000e+09
  %28 = fadd double %27, %23
  call void @llvm.lifetime.end.p0(i64 16, ptr nonnull %3) #16
  %29 = call { i32, i32 } asm sideeffect "cpuid\0A\09rdtsc", "={ax},={dx},{ax},~{ebx},~{ecx},~{dirflag},~{fpsr},~{flags}"(i32 0) #16, !srcloc !20
  %30 = extractvalue { i32, i32 } %29, 0
  %31 = extractvalue { i32, i32 } %29, 1
  %32 = zext i32 %30 to i64
  %33 = zext i32 %31 to i64
  %34 = shl nuw i64 %33, 32
  %35 = or disjoint i64 %34, %32
  %36 = call align 8 ptr @llvm.threadlocal.address.p0(ptr align 8 @total_cycles)
  store i64 %35, ptr %36, align 8, !tbaa !21
  %37 = call align 8 ptr @llvm.threadlocal.address.p0(ptr align 8 @bench_iv)
  %38 = getelementptr inbounds nuw i8, ptr %2, i64 8
  br label %39

39:                                               ; preds = %bench_stats_check.exit, %bench_stats_start.exit
  %.0 = phi i32 [ 0, %bench_stats_start.exit ], [ %52, %bench_stats_check.exit ]
  %40 = load ptr, ptr %37, align 8, !tbaa !8
  %41 = load ptr, ptr %6, align 8, !tbaa !8
  %42 = load i32, ptr @bench_size, align 4, !tbaa !4
  %43 = call i32 @wc_GmacUpdate(ptr noundef nonnull %4, ptr noundef %40, i32 noundef 12, ptr noundef %41, i32 noundef %42, ptr noundef nonnull %5, i32 noundef 16) #16
  call void @llvm.lifetime.start.p0(i64 16, ptr nonnull %2) #16
  %44 = call i32 @clock_gettime(i32 noundef 0, ptr noundef nonnull %2) #16
  %45 = icmp slt i32 %44, 0
  br i1 %45, label %46, label %bench_stats_check.exit

46:                                               ; preds = %39
  %47 = tail call ptr @__errno_location() #17
  %48 = load i32, ptr %47, align 4, !tbaa !4
  %49 = call i32 (ptr, ...) @printf(ptr noundef nonnull dereferenceable(1) @.str.78, ptr noundef nonnull @.str.113, ptr noundef nonnull @.str.79, i32 noundef 14994, i32 noundef %48, ptr noundef nonnull @.str.80)
  %50 = load ptr, ptr @stdout, align 8, !tbaa !14
  %51 = call i32 @fflush(ptr noundef %50)
  call void @_exit(i32 noundef 1) #18
  unreachable

bench_stats_check.exit:                           ; preds = %39
  %52 = add nuw nsw i32 %.0, 1
  %53 = load i64, ptr %2, align 8, !tbaa !16
  %54 = sitofp i64 %53 to double
  %55 = load i64, ptr %38, align 8, !tbaa !19
  %56 = sitofp i64 %55 to double
  %57 = fdiv double %56, 1.000000e+09
  %58 = fadd double %57, %54
  call void @llvm.lifetime.end.p0(i64 16, ptr nonnull %2) #16
  %59 = fsub double %58, %28
  %60 = fcmp uge double %59, 1.000000e+00
  br i1 %60, label %61, label %39, !llvm.loop !29

61:                                               ; preds = %bench_stats_check.exit
  call void @wc_AesFree(ptr noundef nonnull %4) #16
  %62 = load i32, ptr @bench_size, align 4, !tbaa !4
  call fastcc void @bench_stats_sym_finish(ptr noundef nonnull @.str.31, i32 noundef %52, i32 noundef %62, double noundef %28, i32 noundef %43)
  call void @llvm.lifetime.end.p0(i64 16, ptr nonnull %5) #16
  call void @llvm.lifetime.end.p0(i64 848, ptr nonnull %4) #16
  ret void
}